; ModuleID = '46/2137.c'
source_filename = "46/2137.c"
target datalayout = "e-m:e-p270:32:32-p271:32:32-p272:64:64-i64:64-f80:128-n8:16:32:64-S128"
target triple = "x86_64-pc-linux-gnu"

@.str = private unnamed_addr constant [6 x i8] c"%d %d\00", align 1
@.str.1 = private unnamed_addr constant [3 x i8] c"%d\00", align 1
@.str.2 = private unnamed_addr constant [4 x i8] c"%d\0A\00", align 1

; Function Attrs: noinline nounwind uwtable
define dso_local void @main() #0 {
  %1 = alloca [100 x [100 x i32]], align 16
  %2 = alloca i32, align 4
  %3 = alloca i32, align 4
  %4 = alloca i32, align 4
  %5 = alloca i32, align 4
  %6 = alloca i32, align 4
  %7 = alloca i32, align 4
  %8 = alloca i32, align 4
  %9 = alloca i32, align 4
  %10 = call i32 (i8*, ...) @__isoc99_scanf(i8* getelementptr inbounds ([6 x i8], [6 x i8]* @.str, i64 0, i64 0), i32* %2, i32* %3)
  store i32 0, i32* %4, align 4
  br label %11

11:                                               ; preds = %32, %0
  %12 = load i32, i32* %4, align 4
  %13 = load i32, i32* %2, align 4
  %14 = icmp slt i32 %12, %13
  br i1 %14, label %15, label %35

15:                                               ; preds = %11
  store i32 0, i32* %5, align 4
  br label %16

16:                                               ; preds = %28, %15
  %17 = load i32, i32* %5, align 4
  %18 = load i32, i32* %3, align 4
  %19 = icmp slt i32 %17, %18
  br i1 %19, label %20, label %31

20:                                               ; preds = %16
  %21 = load i32, i32* %4, align 4
  %22 = sext i32 %21 to i64
  %23 = getelementptr inbounds [100 x [100 x i32]], [100 x [100 x i32]]* %1, i64 0, i64 %22
  %24 = load i32, i32* %5, align 4
  %25 = sext i32 %24 to i64
  %26 = getelementptr inbounds [100 x i32], [100 x i32]* %23, i64 0, i64 %25
  %27 = call i32 (i8*, ...) @__isoc99_scanf(i8* getelementptr inbounds ([3 x i8], [3 x i8]* @.str.1, i64 0, i64 0), i32* %26)
  br label %28

28:                                               ; preds = %20
  %29 = load i32, i32* %5, align 4
  %30 = add nsw i32 %29, 1
  store i32 %30, i32* %5, align 4
  br label %16

31:                                               ; preds = %16
  br label %32

32:                                               ; preds = %31
  %33 = load i32, i32* %4, align 4
  %34 = add nsw i32 %33, 1
  store i32 %34, i32* %4, align 4
  br label %11

35:                                               ; preds = %11
  store i32 0, i32* %6, align 4
  store i32 0, i32* %7, align 4
  %36 = load i32, i32* %2, align 4
  %37 = sub nsw i32 %36, 1
  store i32 %37, i32* %8, align 4
  %38 = load i32, i32* %3, align 4
  %39 = sub nsw i32 %38, 1
  store i32 %39, i32* %9, align 4
  br label %40

40:                                               ; preds = %35, %138
  %41 = load i32, i32* %6, align 4
  %42 = load i32, i32* %8, align 4
  %43 = icmp sgt i32 %41, %42
  br i1 %43, label %44, label %45

44:                                               ; preds = %40
  br label %141

45:                                               ; preds = %40
  %46 = load i32, i32* %7, align 4
  store i32 %46, i32* %4, align 4
  br label %47

47:                                               ; preds = %60, %45
  %48 = load i32, i32* %4, align 4
  %49 = load i32, i32* %9, align 4
  %50 = icmp sle i32 %48, %49
  br i1 %50, label %51, label %63

51:                                               ; preds = %47
  %52 = load i32, i32* %6, align 4
  %53 = sext i32 %52 to i64
  %54 = getelementptr inbounds [100 x [100 x i32]], [100 x [100 x i32]]* %1, i64 0, i64 %53
  %55 = load i32, i32* %4, align 4
  %56 = sext i32 %55 to i64
  %57 = getelementptr inbounds [100 x i32], [100 x i32]* %54, i64 0, i64 %56
  %58 = load i32, i32* %57, align 4
  %59 = call i32 (i8*, ...) @printf(i8* getelementptr inbounds ([4 x i8], [4 x i8]* @.str.2, i64 0, i64 0), i32 %58)
  br label %60

60:                                               ; preds = %51
  %61 = load i32, i32* %4, align 4
  %62 = add nsw i32 %61, 1
  store i32 %62, i32* %4, align 4
  br label %47

63:                                               ; preds = %47
  %64 = load i32, i32* %6, align 4
  %65 = add nsw i32 %64, 1
  store i32 %65, i32* %6, align 4
  %66 = load i32, i32* %7, align 4
  %67 = load i32, i32* %9, align 4
  %68 = icmp sgt i32 %66, %67
  br i1 %68, label %69, label %70

69:                                               ; preds = %63
  br label %141

70:                                               ; preds = %63
  %71 = load i32, i32* %6, align 4
  store i32 %71, i32* %4, align 4
  br label %72

72:                                               ; preds = %85, %70
  %73 = load i32, i32* %4, align 4
  %74 = load i32, i32* %8, align 4
  %75 = icmp sle i32 %73, %74
  br i1 %75, label %76, label %88

76:                                               ; preds = %72
  %77 = load i32, i32* %4, align 4
  %78 = sext i32 %77 to i64
  %79 = getelementptr inbounds [100 x [100 x i32]], [100 x [100 x i32]]* %1, i64 0, i64 %78
  %80 = load i32, i32* %9, align 4
  %81 = sext i32 %80 to i64
  %82 = getelementptr inbounds [100 x i32], [100 x i32]* %79, i64 0, i64 %81
  %83 = load i32, i32* %82, align 4
  %84 = call i32 (i8*, ...) @printf(i8* getelementptr inbounds ([4 x i8], [4 x i8]* @.str.2, i64 0, i64 0), i32 %83)
  br label %85

85:                                               ; preds = %76
  %86 = load i32, i32* %4, align 4
  %87 = add nsw i32 %86, 1
  store i32 %87, i32* %4, align 4
  br label %72

88:                                               ; preds = %72
  %89 = load i32, i32* %9, align 4
  %90 = add nsw i32 %89, -1
  store i32 %90, i32* %9, align 4
  %91 = load i32, i32* %6, align 4
  %92 = load i32, i32* %8, align 4
  %93 = icmp sgt i32 %91, %92
  br i1 %93, label %94, label %95

94:                                               ; preds = %88
  br label %141

95:                                               ; preds = %88
  %96 = load i32, i32* %9, align 4
  store i32 %96, i32* %4, align 4
  br label %97

97:                                               ; preds = %110, %95
  %98 = load i32, i32* %4, align 4
  %99 = load i32, i32* %7, align 4
  %100 = icmp sge i32 %98, %99
  br i1 %100, label %101, label %113

101:                                              ; preds = %97
  %102 = load i32, i32* %8, align 4
  %103 = sext i32 %102 to i64
  %104 = getelementptr inbounds [100 x [100 x i32]], [100 x [100 x i32]]* %1, i64 0, i64 %103
  %105 = load i32, i32* %4, align 4
  %106 = sext i32 %105 to i64
  %107 = getelementptr inbounds [100 x i32], [100 x i32]* %104, i64 0, i64 %106
  %108 = load i32, i32* %107, align 4
  %109 = call i32 (i8*, ...) @printf(i8* getelementptr inbounds ([4 x i8], [4 x i8]* @.str.2, i64 0, i64 0), i32 %108)
  br label %110

110:                                              ; preds = %101
  %111 = load i32, i32* %4, align 4
  %112 = add nsw i32 %111, -1
  store i32 %112, i32* %4, align 4
  br label %97

113:                                              ; preds = %97
  %114 = load i32, i32* %8, align 4
  %115 = add nsw i32 %114, -1
  store i32 %115, i32* %8, align 4
  %116 = load i32, i32* %7, align 4
  %117 = load i32, i32* %9, align 4
  %118 = icmp sgt i32 %116, %117
  br i1 %118, label %119, label %120

119:                                              ; preds = %113
  br label %141

120:                                              ; preds = %113
  %121 = load i32, i32* %8, align 4
  store i32 %121, i32* %4, align 4
  br label %122

122:                                              ; preds = %135, %120
  %123 = load i32, i32* %4, align 4
  %124 = load i32, i32* %6, align 4
  %125 = icmp sge i32 %123, %124
  br i1 %125, label %126, label %138

126:                                              ; preds = %122
  %127 = load i32, i32* %4, align 4
  %128 = sext i32 %127 to i64
  %129 = getelementptr inbounds [100 x [100 x i32]], [100 x [100 x i32]]* %1, i64 0, i64 %128
  %130 = load i32, i32* %7, align 4
  %131 = sext i32 %130 to i64
  %132 = getelementptr inbounds [100 x i32], [100 x i32]* %129, i64 0, i64 %131
  %133 = load i32, i32* %132, align 4
  %134 = call i32 (i8*, ...) @printf(i8* getelementptr inbounds ([4 x i8], [4 x i8]* @.str.2, i64 0, i64 0), i32 %133)
  br label %135

135:                                              ; preds = %126
  %136 = load i32, i32* %4, align 4
  %137 = add nsw i32 %136, -1
  store i32 %137, i32* %4, align 4
  br label %122

138:                                              ; preds = %122
  %139 = load i32, i32* %7, align 4
  %140 = add nsw i32 %139, 1
  store i32 %140, i32* %7, align 4
  br label %40

141:                                              ; preds = %119, %94, %69, %44
  ret void
}

declare dso_local i32 @__isoc99_scanf(i8*, ...) #1

declare dso_local i32 @printf(i8*, ...) #1


!llvm.module.flags = !{!0}
!llvm.ident = !{!1}

!0 = !{i32 1, !"wchar_size", i32 4}
!1 = !{!"clang version 10.0.0-4ubuntu1 "}
